target datalayout = "e-m:e-p270:32:32-p271:32:32-p272:64:64-i64:64-i128:128-f80:128-n8:16:32:64-S128"
target triple = "x86_64-pc-linux-gnu"

%struct.AVRational = type { i32, i32 }
%struct.AVCodecParameters = type { i32, i32, i32, ptr, i32, ptr, i32, i32, i64, i32, i32, i32, i32, i32, i32, %struct.AVRational, %struct.AVRational, i32, i32, i32, i32, i32, i32, i32, %struct.AVChannelLayout, i32, i32, i32, i32, i32, i32 }
%struct.AVChannelLayout = type { i32, i32, %union.anon, ptr }
%union.anon = type { i64 }
%struct.AVStream = type { ptr, i32, i32, ptr, ptr, %struct.AVRational, i64, i64, i64, i32, i32, %struct.AVRational, ptr, %struct.AVRational, %struct.AVPacket, i32, %struct.AVRational, i32 }
%struct.AVPacket = type { ptr, i64, i64, ptr, i32, i32, i32, ptr, i32, i64, i64, ptr, ptr, %struct.AVRational }
%struct.AVCodec = type { ptr, ptr, i32, i32, i32, i8, ptr, ptr, ptr, ptr, ptr, ptr, ptr, ptr }
%struct.OptionsContext = type { ptr, i64, i64, i32, ptr, %struct.SpecifierOptList, %struct.SpecifierOptList, %struct.SpecifierOptList, %struct.SpecifierOptList, %struct.SpecifierOptList, %struct.SpecifierOptList, %struct.SpecifierOptList, %struct.SpecifierOptList, i64, i32, i32, float, float, double, i32, i32, i32, i32, %struct.SpecifierOptList, %struct.SpecifierOptList, %struct.SpecifierOptList, %struct.SpecifierOptList, %struct.SpecifierOptList, %struct.SpecifierOptList, %struct.SpecifierOptList, ptr, i32, ptr, i32, i32, i64, i64, i64, float, float, float, i32, i32, i32, i32, i32, i32, ptr, %struct.SpecifierOptList, %struct.SpecifierOptList, %struct.SpecifierOptList, %struct.SpecifierOptList, %struct.SpecifierOptList, %struct.SpecifierOptList, %struct.SpecifierOptList, %struct.SpecifierOptList, %struct.SpecifierOptList, %struct.SpecifierOptList, %struct.SpecifierOptList, %struct.SpecifierOptList, %struct.SpecifierOptList, %struct.SpecifierOptList, %struct.SpecifierOptList, %struct.SpecifierOptList, %struct.SpecifierOptList, %struct.SpecifierOptList, %struct.SpecifierOptList, %struct.SpecifierOptList, %struct.SpecifierOptList, %struct.SpecifierOptList, %struct.SpecifierOptList, %struct.SpecifierOptList, %struct.SpecifierOptList, %struct.SpecifierOptList, %struct.SpecifierOptList, %struct.SpecifierOptList, %struct.SpecifierOptList, %struct.SpecifierOptList, %struct.SpecifierOptList, %struct.SpecifierOptList, %struct.SpecifierOptList, %struct.SpecifierOptList, %struct.SpecifierOptList, %struct.SpecifierOptList, %struct.SpecifierOptList, %struct.SpecifierOptList, %struct.SpecifierOptList, %struct.SpecifierOptList, %struct.SpecifierOptList, %struct.SpecifierOptList, %struct.SpecifierOptList, %struct.SpecifierOptList, %struct.SpecifierOptList, %struct.SpecifierOptList, %struct.SpecifierOptList, %struct.SpecifierOptList, %struct.SpecifierOptList }
%struct.SpecifierOptList = type { ptr, i32, ptr, i32 }
%struct.AVCodecHWConfig = type { i32, i32, i32 }

@recast_media = external global i32, align 4
@.str.76 = private unnamed_addr constant [63 x i8] c"Selecting decoder '%s' because of requested hwaccel method %s\0A\00", align 1

; Function Attrs: nounwind uwtable
define internal i32 @choose_decoder(ptr noundef %0, ptr noundef %1, ptr noundef %2, ptr noundef %3, i32 noundef %4, i32 noundef %5, ptr noundef %6) #0 {
  %8 = alloca i32, align 4
  %9 = alloca ptr, align 8
  %10 = alloca ptr, align 8
  %11 = alloca ptr, align 8
  %12 = alloca ptr, align 8
  %13 = alloca i32, align 4
  %14 = alloca i32, align 4
  %15 = alloca ptr, align 8
  %16 = alloca ptr, align 8
  %17 = alloca i32, align 4
  %18 = alloca i32, align 4
  %19 = alloca ptr, align 8
  %20 = alloca ptr, align 8
  %21 = alloca ptr, align 8
  %22 = alloca i32, align 4
  store ptr %0, ptr %9, align 8, !tbaa !178
  store ptr %1, ptr %10, align 8, !tbaa !222
  store ptr %2, ptr %11, align 8, !tbaa !195
  store ptr %3, ptr %12, align 8, !tbaa !231
  store i32 %4, ptr %13, align 4, !tbaa !4
  store i32 %5, ptr %14, align 4, !tbaa !4
  store ptr %6, ptr %15, align 8, !tbaa !277
  call void @llvm.lifetime.start.p0(i64 8, ptr %16) #12
  store ptr null, ptr %16, align 8, !tbaa !180
  %23 = load ptr, ptr %10, align 8, !tbaa !222
  %24 = load ptr, ptr %9, align 8, !tbaa !178
  %25 = getelementptr inbounds nuw %struct.OptionsContext, ptr %24, i32 0, i32 5
  %26 = load ptr, ptr %11, align 8, !tbaa !195
  %27 = load ptr, ptr %12, align 8, !tbaa !231
  call void @opt_match_per_stream_str(ptr noundef %23, ptr noundef %25, ptr noundef %26, ptr noundef %27, ptr noundef %16)
  %28 = load ptr, ptr %16, align 8, !tbaa !180
  %29 = icmp ne ptr %28, null
  br i1 %29, label %30, label %76

30:                                               ; preds = %7
  call void @llvm.lifetime.start.p0(i64 4, ptr %17) #12
  %31 = load ptr, ptr %16, align 8, !tbaa !180
  %32 = load ptr, ptr %12, align 8, !tbaa !231
  %33 = getelementptr inbounds nuw %struct.AVStream, ptr %32, i32 0, i32 3
  %34 = load ptr, ptr %33, align 8, !tbaa !99
  %35 = getelementptr inbounds nuw %struct.AVCodecParameters, ptr %34, i32 0, i32 0
  %36 = load i32, ptr %35, align 8, !tbaa !24
  %37 = load ptr, ptr %15, align 8, !tbaa !277
  %38 = call i32 @find_codec(ptr noundef null, ptr noundef %31, i32 noundef %36, i32 noundef 0, ptr noundef %37)
  store i32 %38, ptr %17, align 4, !tbaa !4
  %39 = load i32, ptr %17, align 4, !tbaa !4
  %40 = icmp slt i32 %39, 0
  br i1 %40, label %41, label %43

41:                                               ; preds = %30
  %42 = load i32, ptr %17, align 4, !tbaa !4
  store i32 %42, ptr %8, align 4
  store i32 1, ptr %18, align 4
  br label %75

43:                                               ; preds = %30
  %44 = load ptr, ptr %15, align 8, !tbaa !277
  %45 = load ptr, ptr %44, align 8, !tbaa !279
  %46 = getelementptr inbounds nuw %struct.AVCodec, ptr %45, i32 0, i32 3
  %47 = load i32, ptr %46, align 4, !tbaa !111
  %48 = load ptr, ptr %12, align 8, !tbaa !231
  %49 = getelementptr inbounds nuw %struct.AVStream, ptr %48, i32 0, i32 3
  %50 = load ptr, ptr %49, align 8, !tbaa !99
  %51 = getelementptr inbounds nuw %struct.AVCodecParameters, ptr %50, i32 0, i32 1
  store i32 %47, ptr %51, align 4, !tbaa !87
  %52 = load i32, ptr @recast_media, align 4, !tbaa !4
  %53 = icmp ne i32 %52, 0
  br i1 %53, label %54, label %74

54:                                               ; preds = %43
  %55 = load ptr, ptr %12, align 8, !tbaa !231
  %56 = getelementptr inbounds nuw %struct.AVStream, ptr %55, i32 0, i32 3
  %57 = load ptr, ptr %56, align 8, !tbaa !99
  %58 = getelementptr inbounds nuw %struct.AVCodecParameters, ptr %57, i32 0, i32 0
  %59 = load i32, ptr %58, align 8, !tbaa !24
  %60 = load ptr, ptr %15, align 8, !tbaa !277
  %61 = load ptr, ptr %60, align 8, !tbaa !279
  %62 = getelementptr inbounds nuw %struct.AVCodec, ptr %61, i32 0, i32 2
  %63 = load i32, ptr %62, align 8, !tbaa !280
  %64 = icmp ne i32 %59, %63
  br i1 %64, label %65, label %74

65:                                               ; preds = %54
  %66 = load ptr, ptr %15, align 8, !tbaa !277
  %67 = load ptr, ptr %66, align 8, !tbaa !279
  %68 = getelementptr inbounds nuw %struct.AVCodec, ptr %67, i32 0, i32 2
  %69 = load i32, ptr %68, align 8, !tbaa !280
  %70 = load ptr, ptr %12, align 8, !tbaa !231
  %71 = getelementptr inbounds nuw %struct.AVStream, ptr %70, i32 0, i32 3
  %72 = load ptr, ptr %71, align 8, !tbaa !99
  %73 = getelementptr inbounds nuw %struct.AVCodecParameters, ptr %72, i32 0, i32 0
  store i32 %69, ptr %73, align 8, !tbaa !24
  br label %74

74:                                               ; preds = %65, %54, %43
  store i32 0, ptr %8, align 4
  store i32 1, ptr %18, align 4
  br label %75

75:                                               ; preds = %74, %41
  call void @llvm.lifetime.end.p0(i64 4, ptr %17) #12
  br label %152

76:                                               ; preds = %7
  %77 = load ptr, ptr %12, align 8, !tbaa !231
  %78 = getelementptr inbounds nuw %struct.AVStream, ptr %77, i32 0, i32 3
  %79 = load ptr, ptr %78, align 8, !tbaa !99
  %80 = getelementptr inbounds nuw %struct.AVCodecParameters, ptr %79, i32 0, i32 0
  %81 = load i32, ptr %80, align 8, !tbaa !24
  %82 = icmp eq i32 %81, 0
  br i1 %82, label %83, label %144

83:                                               ; preds = %76
  %84 = load i32, ptr %13, align 4, !tbaa !4
  %85 = icmp eq i32 %84, 2
  br i1 %85, label %86, label %144

86:                                               ; preds = %83
  %87 = load i32, ptr %14, align 4, !tbaa !4
  %88 = icmp ne i32 %87, 0
  br i1 %88, label %89, label %144

89:                                               ; preds = %86
  call void @llvm.lifetime.start.p0(i64 8, ptr %19) #12
  call void @llvm.lifetime.start.p0(i64 8, ptr %20) #12
  store ptr null, ptr %20, align 8, !tbaa !222
  br label %90

90:                                               ; preds = %139, %137, %89
  %91 = call ptr @av_codec_iterate(ptr noundef %20)
  store ptr %91, ptr %19, align 8, !tbaa !279
  %92 = icmp ne ptr %91, null
  br i1 %92, label %93, label %140

93:                                               ; preds = %90
  call void @llvm.lifetime.start.p0(i64 8, ptr %21) #12
  %94 = load ptr, ptr %19, align 8, !tbaa !279
  %95 = getelementptr inbounds nuw %struct.AVCodec, ptr %94, i32 0, i32 3
  %96 = load i32, ptr %95, align 4, !tbaa !111
  %97 = load ptr, ptr %12, align 8, !tbaa !231
  %98 = getelementptr inbounds nuw %struct.AVStream, ptr %97, i32 0, i32 3
  %99 = load ptr, ptr %98, align 8, !tbaa !99
  %100 = getelementptr inbounds nuw %struct.AVCodecParameters, ptr %99, i32 0, i32 1
  %101 = load i32, ptr %100, align 4, !tbaa !87
  %102 = icmp ne i32 %96, %101
  br i1 %102, label %107, label %103

103:                                              ; preds = %93
  %104 = load ptr, ptr %19, align 8, !tbaa !279
  %105 = call i32 @av_codec_is_decoder(ptr noundef %104)
  %106 = icmp ne i32 %105, 0
  br i1 %106, label %108, label %107

107:                                              ; preds = %103, %93
  store i32 2, ptr %18, align 4
  br label %137, !llvm.loop !281

108:                                              ; preds = %103
  call void @llvm.lifetime.start.p0(i64 4, ptr %22) #12
  store i32 0, ptr %22, align 4, !tbaa !4
  br label %109

109:                                              ; preds = %131, %108
  %110 = load ptr, ptr %19, align 8, !tbaa !279
  %111 = load i32, ptr %22, align 4, !tbaa !4
  %112 = call ptr @avcodec_get_hw_config(ptr noundef %110, i32 noundef %111)
  store ptr %112, ptr %21, align 8, !tbaa !282
  %113 = icmp ne ptr %112, null
  br i1 %113, label %115, label %114

114:                                              ; preds = %109
  store i32 4, ptr %18, align 4
  br label %134

115:                                              ; preds = %109
  %116 = load ptr, ptr %21, align 8, !tbaa !282
  %117 = getelementptr inbounds nuw %struct.AVCodecHWConfig, ptr %116, i32 0, i32 2
  %118 = load i32, ptr %117, align 4, !tbaa !284
  %119 = load i32, ptr %14, align 4, !tbaa !4
  %120 = icmp eq i32 %118, %119
  br i1 %120, label %121, label %130

121:                                              ; preds = %115
  %122 = load ptr, ptr %10, align 8, !tbaa !222
  %123 = load ptr, ptr %19, align 8, !tbaa !279
  %124 = getelementptr inbounds nuw %struct.AVCodec, ptr %123, i32 0, i32 0
  %125 = load ptr, ptr %124, align 8, !tbaa !286
  %126 = load i32, ptr %14, align 4, !tbaa !4
  %127 = call ptr @av_hwdevice_get_type_name(i32 noundef %126)
  call void (ptr, i32, ptr, ...) @av_log(ptr noundef %122, i32 noundef 40, ptr noundef @.str.76, ptr noundef %125, ptr noundef %127)
  %128 = load ptr, ptr %19, align 8, !tbaa !279
  %129 = load ptr, ptr %15, align 8, !tbaa !277
  store ptr %128, ptr %129, align 8, !tbaa !279
  store i32 0, ptr %8, align 4
  store i32 1, ptr %18, align 4
  br label %134

130:                                              ; preds = %115
  br label %131

131:                                              ; preds = %130
  %132 = load i32, ptr %22, align 4, !tbaa !4
  %133 = add nsw i32 %132, 1
  store i32 %133, ptr %22, align 4, !tbaa !4
  br label %109, !llvm.loop !287

134:                                              ; preds = %121, %114
  call void @llvm.lifetime.end.p0(i64 4, ptr %22) #12
  %135 = load i32, ptr %18, align 4
  switch i32 %135, label %137 [
    i32 4, label %136
  ]

136:                                              ; preds = %134
  store i32 0, ptr %18, align 4
  br label %137

137:                                              ; preds = %136, %134, %107
  call void @llvm.lifetime.end.p0(i64 8, ptr %21) #12
  %138 = load i32, ptr %18, align 4
  switch i32 %138, label %141 [
    i32 0, label %139
    i32 2, label %90
  ]

139:                                              ; preds = %137
  br label %90, !llvm.loop !281

140:                                              ; preds = %90
  store i32 0, ptr %18, align 4
  br label %141

141:                                              ; preds = %140, %137
  call void @llvm.lifetime.end.p0(i64 8, ptr %20) #12
  call void @llvm.lifetime.end.p0(i64 8, ptr %19) #12
  %142 = load i32, ptr %18, align 4
  switch i32 %142, label %152 [
    i32 0, label %143
  ]

143:                                              ; preds = %141
  br label %144

144:                                              ; preds = %143, %86, %83, %76
  %145 = load ptr, ptr %12, align 8, !tbaa !231
  %146 = getelementptr inbounds nuw %struct.AVStream, ptr %145, i32 0, i32 3
  %147 = load ptr, ptr %146, align 8, !tbaa !99
  %148 = getelementptr inbounds nuw %struct.AVCodecParameters, ptr %147, i32 0, i32 1
  %149 = load i32, ptr %148, align 4, !tbaa !87
  %150 = call ptr @avcodec_find_decoder(i32 noundef %149)
  %151 = load ptr, ptr %15, align 8, !tbaa !277
  store ptr %150, ptr %151, align 8, !tbaa !279
  store i32 0, ptr %8, align 4
  store i32 1, ptr %18, align 4
  br label %152

152:                                              ; preds = %144, %141, %75
  call void @llvm.lifetime.end.p0(i64 8, ptr %16) #12
  %153 = load i32, ptr %8, align 4
  ret i32 %153
}