; Function Attrs: nounwind uwtable
define internal fastcc range(i32 -2147483648, 1) i32 @choose_decoder(ptr noundef %0, ptr noundef nonnull %1, ptr noundef %2, ptr noundef %3, i32 noundef %4, i32 noundef %5, ptr noundef nonnull %6) unnamed_addr #0 {
  %8 = alloca ptr, align 8
  %9 = alloca ptr, align 8
  call void @llvm.lifetime.start.p0(i64 8, ptr nonnull %8) #14
  store ptr null, ptr %8, align 8, !tbaa !206
  %10 = getelementptr inbounds nuw i8, ptr %0, i64 40
  call void @opt_match_per_stream_str(ptr noundef nonnull %1, ptr noundef nonnull %10, ptr noundef %2, ptr noundef %3, ptr noundef nonnull %8) #14
  %11 = load ptr, ptr %8, align 8, !tbaa !206
  %.not = icmp eq ptr %11, null
  %12 = getelementptr inbounds nuw i8, ptr %3, i64 16
  %13 = load ptr, ptr %12, align 8, !tbaa !86
  %14 = load i32, ptr %13, align 8, !tbaa !19
  br i1 %.not, label %30, label %15

15:                                               ; preds = %7
  %16 = call i32 @find_codec(ptr noundef null, ptr noundef nonnull %11, i32 noundef %14, i32 noundef 0, ptr noundef nonnull %6) #14
  %17 = icmp slt i32 %16, 0
  br i1 %17, label %61, label %18

18:                                               ; preds = %15
  %19 = load ptr, ptr %6, align 8, !tbaa !207
  %20 = getelementptr inbounds nuw i8, ptr %19, i64 20
  %21 = load i32, ptr %20, align 4, !tbaa !97
  %22 = load ptr, ptr %12, align 8, !tbaa !86
  %23 = getelementptr inbounds nuw i8, ptr %22, i64 4
  store i32 %21, ptr %23, align 4, !tbaa !74
  %24 = load i32, ptr @recast_media, align 4, !tbaa !110
  %.not53 = icmp eq i32 %24, 0
  br i1 %.not53, label %61, label %25

25:                                               ; preds = %18
  %26 = load i32, ptr %22, align 8, !tbaa !19
  %27 = getelementptr inbounds nuw i8, ptr %19, i64 16
  %28 = load i32, ptr %27, align 8, !tbaa !208
  %.not54 = icmp eq i32 %26, %28
  br i1 %.not54, label %61, label %29

29:                                               ; preds = %25
  store i32 %28, ptr %22, align 8, !tbaa !19
  br label %61

30:                                               ; preds = %7
  %31 = icmp eq i32 %14, 0
  %32 = icmp eq i32 %4, 2
  %or.cond = and i1 %32, %31
  %33 = icmp ne i32 %5, 0
  %or.cond4 = and i1 %33, %or.cond
  br i1 %or.cond4, label %34, label %56

34:                                               ; preds = %30
  call void @llvm.lifetime.start.p0(i64 8, ptr nonnull %9) #14
  store ptr null, ptr %9, align 8, !tbaa !196
  %35 = call ptr @av_codec_iterate(ptr noundef nonnull %9) #14
  %.not4962 = icmp eq ptr %35, null
  br i1 %.not4962, label %.thread56, label %.lr.ph63

.thread56:                                        ; preds = %.loopexit, %34
  call void @llvm.lifetime.end.p0(i64 8, ptr nonnull %9) #14
  %.pre = load ptr, ptr %12, align 8, !tbaa !86
  br label %56

.lr.ph63:                                         ; preds = %34, %.loopexit
  %36 = phi ptr [ %52, %.loopexit ], [ %35, %34 ]
  %37 = getelementptr inbounds nuw i8, ptr %36, i64 20
  %38 = load i32, ptr %37, align 4, !tbaa !97
  %39 = load ptr, ptr %12, align 8, !tbaa !86
  %40 = getelementptr inbounds nuw i8, ptr %39, i64 4
  %41 = load i32, ptr %40, align 4, !tbaa !74
  %.not50 = icmp eq i32 %38, %41
  br i1 %.not50, label %42, label %.loopexit, !llvm.loop !336

42:                                               ; preds = %.lr.ph63
  %43 = call i32 @av_codec_is_decoder(ptr noundef nonnull %36) #14
  %.not51 = icmp eq i32 %43, 0
  br i1 %.not51, label %.loopexit, label %.preheader, !llvm.loop !336

.preheader:                                       ; preds = %42
  %44 = call ptr @avcodec_get_hw_config(ptr noundef nonnull %36, i32 noundef 0) #14
  %.not5260 = icmp eq ptr %44, null
  br i1 %.not5260, label %.loopexit, label %.lr.ph

45:                                               ; preds = %.lr.ph
  %46 = add nuw nsw i32 %.061, 1
  %47 = call ptr @avcodec_get_hw_config(ptr noundef nonnull %36, i32 noundef %46) #14
  %.not52 = icmp eq ptr %47, null
  br i1 %.not52, label %.loopexit, label %.lr.ph, !llvm.loop !337

.lr.ph:                                           ; preds = %.preheader, %45
  %48 = phi ptr [ %47, %45 ], [ %44, %.preheader ]
  %.061 = phi i32 [ %46, %45 ], [ 0, %.preheader ]
  %49 = getelementptr inbounds nuw i8, ptr %48, i64 8
  %50 = load i32, ptr %49, align 4, !tbaa !338
  %51 = icmp eq i32 %50, %5
  br i1 %51, label %53, label %45

.loopexit:                                        ; preds = %45, %.preheader, %.lr.ph63, %42
  %52 = call ptr @av_codec_iterate(ptr noundef nonnull %9) #14
  %.not49 = icmp eq ptr %52, null
  br i1 %.not49, label %.thread56, label %.lr.ph63

53:                                               ; preds = %.lr.ph
  %54 = load ptr, ptr %36, align 8, !tbaa !340
  %55 = call ptr @av_hwdevice_get_type_name(i32 noundef %5) #14
  call void (ptr, i32, ptr, ...) @av_log(ptr noundef nonnull %1, i32 noundef 40, ptr noundef nonnull @.str.76, ptr noundef %54, ptr noundef %55) #14
  store ptr %36, ptr %6, align 8, !tbaa !207
  call void @llvm.lifetime.end.p0(i64 8, ptr nonnull %9) #14
  br label %61

56:                                               ; preds = %.thread56, %30
  %57 = phi ptr [ %.pre, %.thread56 ], [ %13, %30 ]
  %58 = getelementptr inbounds nuw i8, ptr %57, i64 4
  %59 = load i32, ptr %58, align 4, !tbaa !74
  %60 = call ptr @avcodec_find_decoder(i32 noundef %59) #14
  store ptr %60, ptr %6, align 8, !tbaa !207
  br label %61

61:                                               ; preds = %53, %15, %29, %25, %18, %56
  %.1 = phi i32 [ 0, %56 ], [ 0, %53 ], [ %16, %15 ], [ 0, %29 ], [ 0, %25 ], [ 0, %18 ]
  call void @llvm.lifetime.end.p0(i64 8, ptr nonnull %8) #14
  ret i32 %.1
}